target datalayout = "e-m:e-p270:32:32-p271:32:32-p272:64:64-i64:64-i128:128-f80:128-n8:16:32:64-S128"
target triple = "x86_64-pc-linux-gnu"

%"struct.duckdb::roaring::ContainerSegmentScan" = type <{ ptr, i8, i8, [6 x i8] }>

; Function Attrs: mustprogress nounwind uwtable
define noundef zeroext i16 @_ZN6duckdb7roaring20ContainerSegmentScanppEi(ptr noundef nonnull align 8 dereferenceable(10) %0, i32 noundef %1) #2 align 2 {
  %3 = alloca ptr, align 8
  %4 = alloca i32, align 4
  %5 = alloca i16, align 2
  store ptr %0, ptr %3, align 8, !tbaa !441
  store i32 %1, ptr %4, align 4, !tbaa !350
  %6 = load ptr, ptr %3, align 8
  br label %7

7:                                                ; preds = %27, %2
  %8 = getelementptr inbounds nuw %"struct.duckdb::roaring::ContainerSegmentScan", ptr %6, i32 0, i32 1
  %9 = load i8, ptr %8, align 8, !tbaa !445
  %10 = zext i8 %9 to i32
  %11 = icmp slt i32 %10, 8
  br i1 %11, label %12, label %25

12:                                               ; preds = %7
  %13 = getelementptr inbounds nuw %"struct.duckdb::roaring::ContainerSegmentScan", ptr %6, i32 0, i32 2
  %14 = load i8, ptr %13, align 1, !tbaa !446
  %15 = zext i8 %14 to i32
  %16 = getelementptr inbounds nuw %"struct.duckdb::roaring::ContainerSegmentScan", ptr %6, i32 0, i32 0
  %17 = load ptr, ptr %16, align 8, !tbaa !443
  %18 = getelementptr inbounds nuw %"struct.duckdb::roaring::ContainerSegmentScan", ptr %6, i32 0, i32 1
  %19 = load i8, ptr %18, align 8, !tbaa !445
  %20 = zext i8 %19 to i64
  %21 = getelementptr inbounds nuw i8, ptr %17, i64 %20
  %22 = load i8, ptr %21, align 1, !tbaa !292
  %23 = zext i8 %22 to i32
  %24 = icmp sge i32 %15, %23
  br label %25

25:                                               ; preds = %12, %7
  %26 = phi i1 [ false, %7 ], [ %24, %12 ]
  br i1 %26, label %27, label %32

27:                                               ; preds = %25
  %28 = getelementptr inbounds nuw %"struct.duckdb::roaring::ContainerSegmentScan", ptr %6, i32 0, i32 2
  store i8 0, ptr %28, align 1, !tbaa !446
  %29 = getelementptr inbounds nuw %"struct.duckdb::roaring::ContainerSegmentScan", ptr %6, i32 0, i32 1
  %30 = load i8, ptr %29, align 8, !tbaa !445
  %31 = add i8 %30, 1
  store i8 %31, ptr %29, align 8, !tbaa !445
  br label %7, !llvm.loop !447

32:                                               ; preds = %25
  %33 = getelementptr inbounds nuw %"struct.duckdb::roaring::ContainerSegmentScan", ptr %6, i32 0, i32 2
  %34 = load i8, ptr %33, align 1, !tbaa !446
  %35 = add i8 %34, 1
  store i8 %35, ptr %33, align 1, !tbaa !446
  %36 = getelementptr inbounds nuw %"struct.duckdb::roaring::ContainerSegmentScan", ptr %6, i32 0, i32 1
  %37 = load i8, ptr %36, align 8, !tbaa !445
  %38 = zext i8 %37 to i32
  %39 = icmp slt i32 %38, 8
  br i1 %39, label %40, label %41

40:                                               ; preds = %32
  br label %41

41:                                               ; preds = %40, %32
  call void @llvm.lifetime.start.p0(i64 2, ptr %5) #19
  %42 = getelementptr inbounds nuw %"struct.duckdb::roaring::ContainerSegmentScan", ptr %6, i32 0, i32 1
  %43 = load i8, ptr %42, align 8, !tbaa !445
  %44 = zext i8 %43 to i16
  %45 = zext i16 %44 to i32
  %46 = mul nsw i32 %45, 256
  %47 = trunc i32 %46 to i16
  store i16 %47, ptr %5, align 2, !tbaa !137
  %48 = load i16, ptr %5, align 2, !tbaa !137
  call void @llvm.lifetime.end.p0(i64 2, ptr %5) #19
  ret i16 %48
}