; Function Attrs: mustprogress nofree norecurse nosync nounwind memory(read, argmem: readwrite, inaccessiblemem: none) uwtable
define noundef zeroext range(i16 0, -255) i16 @_ZN6duckdb7roaring20ContainerSegmentScanppEi(ptr noundef nonnull align 8 captures(none) dereferenceable(10) %0, i32 noundef %1) local_unnamed_addr #18 align 2 {
  %3 = getelementptr inbounds nuw i8, ptr %0, i64 9
  %4 = getelementptr inbounds nuw i8, ptr %0, i64 8
  %.promoted = load i8, ptr %4, align 8, !tbaa !419
  %5 = icmp ult i8 %.promoted, 8
  %.pre = load i8, ptr %3, align 1, !tbaa !420
  br i1 %5, label %.lr.ph, label %.critedge

.lr.ph:                                           ; preds = %2
  %6 = load ptr, ptr %0, align 8, !tbaa !418
  %7 = zext nneg i8 %.promoted to i64
  br label %8

8:                                                ; preds = %.lr.ph, %12
  %indvars.iv = phi i64 [ %7, %.lr.ph ], [ %indvars.iv.next, %12 ]
  %9 = phi i8 [ %.pre, %.lr.ph ], [ 0, %12 ]
  %10 = getelementptr inbounds nuw i8, ptr %6, i64 %indvars.iv
  %11 = load i8, ptr %10, align 1, !tbaa !295
  %.not = icmp ult i8 %9, %11
  br i1 %.not, label %.critedge.loopexit.split.loop.exit5, label %12

12:                                               ; preds = %8
  store i8 0, ptr %3, align 1, !tbaa !420
  %indvars.iv.next = add nuw nsw i64 %indvars.iv, 1
  %13 = trunc i64 %indvars.iv.next to i8
  store i8 %13, ptr %4, align 8, !tbaa !419
  %exitcond.not = icmp eq i8 %13, 8
  br i1 %exitcond.not, label %.critedge, label %8, !llvm.loop !421

.critedge.loopexit.split.loop.exit5:              ; preds = %8
  %14 = trunc nuw nsw i64 %indvars.iv to i8
  br label %.critedge

.critedge:                                        ; preds = %12, %.critedge.loopexit.split.loop.exit5, %2
  %15 = phi i8 [ %.pre, %2 ], [ %9, %.critedge.loopexit.split.loop.exit5 ], [ 0, %12 ]
  %.lcssa = phi i8 [ %.promoted, %2 ], [ %14, %.critedge.loopexit.split.loop.exit5 ], [ 8, %12 ]
  %16 = add i8 %15, 1
  store i8 %16, ptr %3, align 1, !tbaa !420
  %17 = zext i8 %.lcssa to i16
  %18 = shl nuw i16 %17, 8
  ret i16 %18
}